target datalayout = "e-m:e-p270:32:32-p271:32:32-p272:64:64-i64:64-i128:128-f80:128-n8:16:32:64-S128"
target triple = "x86_64-pc-linux-gnu"

%"union.pxrInternal_v0_24__pxrReserved__::pxr_half::half::uif" = type { i32 }
%"class.pxrInternal_v0_24__pxrReserved__::GfQuath" = type { %"class.pxrInternal_v0_24__pxrReserved__::GfVec3h", %"class.pxrInternal_v0_24__pxrReserved__::pxr_half::half" }
%"class.pxrInternal_v0_24__pxrReserved__::GfVec3h" = type { [3 x %"class.pxrInternal_v0_24__pxrReserved__::pxr_half::half"] }
%"class.pxrInternal_v0_24__pxrReserved__::pxr_half::half" = type { i16 }
%"class.pxrInternal_v0_24__pxrReserved__::GfQuatd" = type { %"class.pxrInternal_v0_24__pxrReserved__::GfVec3d", double }
%"class.pxrInternal_v0_24__pxrReserved__::GfVec3d" = type { [3 x double] }

@_ZN32pxrInternal_v0_24__pxrReserved__8pxr_half4half5_eLutE = external constant [512 x i16], align 16

; Function Attrs: mustprogress uwtable
define linkonce_odr void @_ZN32pxrInternal_v0_24__pxrReserved__8pxr_half4halfC2Ef(ptr noundef nonnull align 2 dereferenceable(2) %0, float noundef %1) unnamed_addr #0 comdat align 2 {
  %3 = alloca ptr, align 8
  %4 = alloca float, align 4
  %5 = alloca %"union.pxrInternal_v0_24__pxrReserved__::pxr_half::half::uif", align 4
  %6 = alloca i32, align 4
  %7 = alloca i32, align 4
  store ptr %0, ptr %3, align 8
  store float %1, ptr %4, align 4
  %8 = load ptr, ptr %3, align 8
  %9 = load float, ptr %4, align 4
  store float %9, ptr %5, align 4
  %10 = load float, ptr %4, align 4
  %11 = fcmp oeq float %10, 0.000000e+00
  br i1 %11, label %12, label %17

12:                                               ; preds = %2
  %13 = load i32, ptr %5, align 4
  %14 = lshr i32 %13, 16
  %15 = trunc i32 %14 to i16
  %16 = getelementptr inbounds nuw %"class.pxrInternal_v0_24__pxrReserved__::pxr_half::half", ptr %8, i32 0, i32 0
  store i16 %15, ptr %16, align 2
  br label %47

17:                                               ; preds = %2
  %18 = load i32, ptr %5, align 4
  %19 = lshr i32 %18, 23
  %20 = and i32 %19, 511
  store i32 %20, ptr %6, align 4
  %21 = load i32, ptr %6, align 4
  %22 = sext i32 %21 to i64
  %23 = getelementptr inbounds [512 x i16], ptr @_ZN32pxrInternal_v0_24__pxrReserved__8pxr_half4half5_eLutE, i64 0, i64 %22
  %24 = load i16, ptr %23, align 2
  %25 = zext i16 %24 to i32
  store i32 %25, ptr %6, align 4
  %26 = load i32, ptr %6, align 4
  %27 = icmp ne i32 %26, 0
  br i1 %27, label %28, label %42

28:                                               ; preds = %17
  %29 = load i32, ptr %5, align 4
  %30 = and i32 %29, 8388607
  store i32 %30, ptr %7, align 4
  %31 = load i32, ptr %6, align 4
  %32 = load i32, ptr %7, align 4
  %33 = add nsw i32 %32, 4095
  %34 = load i32, ptr %7, align 4
  %35 = ashr i32 %34, 13
  %36 = and i32 %35, 1
  %37 = add nsw i32 %33, %36
  %38 = ashr i32 %37, 13
  %39 = add nsw i32 %31, %38
  %40 = trunc i32 %39 to i16
  %41 = getelementptr inbounds nuw %"class.pxrInternal_v0_24__pxrReserved__::pxr_half::half", ptr %8, i32 0, i32 0
  store i16 %40, ptr %41, align 2
  br label %46

42:                                               ; preds = %17
  %43 = load i32, ptr %5, align 4
  %44 = call noundef signext i16 @_ZN32pxrInternal_v0_24__pxrReserved__8pxr_half4half7convertEi(i32 noundef %43)
  %45 = getelementptr inbounds nuw %"class.pxrInternal_v0_24__pxrReserved__::pxr_half::half", ptr %8, i32 0, i32 0
  store i16 %44, ptr %45, align 2
  br label %46

46:                                               ; preds = %42, %28
  br label %47

47:                                               ; preds = %46, %12
  ret void
}

; Function Attrs: mustprogress nounwind uwtable
define linkonce_odr noundef double @_ZNK32pxrInternal_v0_24__pxrReserved__7GfQuatd7GetRealEv(ptr noundef nonnull align 8 dereferenceable(32) %0) #2 comdat align 2 {
  %2 = alloca ptr, align 8
  store ptr %0, ptr %2, align 8
  %3 = load ptr, ptr %2, align 8
  %4 = getelementptr inbounds nuw %"class.pxrInternal_v0_24__pxrReserved__::GfQuatd", ptr %3, i32 0, i32 1
  %5 = load double, ptr %4, align 8
  ret double %5
}

; Function Attrs: mustprogress nounwind uwtable
define linkonce_odr noundef nonnull align 8 dereferenceable(24) ptr @_ZNK32pxrInternal_v0_24__pxrReserved__7GfQuatd12GetImaginaryEv(ptr noundef nonnull align 8 dereferenceable(32) %0) #2 comdat align 2 {
  %2 = alloca ptr, align 8
  store ptr %0, ptr %2, align 8
  %3 = load ptr, ptr %2, align 8
  %4 = getelementptr inbounds nuw %"class.pxrInternal_v0_24__pxrReserved__::GfQuatd", ptr %3, i32 0, i32 0
  ret ptr %4
}

; Function Attrs: mustprogress uwtable
define void @_ZN32pxrInternal_v0_24__pxrReserved__7GfQuathC2ERKNS_7GfQuatdE(ptr noundef nonnull align 2 dereferenceable(8) %0, ptr noundef nonnull align 8 dereferenceable(32) %1) unnamed_addr #0 align 2 {
  %3 = alloca ptr, align 8
  %4 = alloca ptr, align 8
  store ptr %0, ptr %3, align 8
  store ptr %1, ptr %4, align 8
  %5 = load ptr, ptr %3, align 8
  %6 = getelementptr inbounds nuw %"class.pxrInternal_v0_24__pxrReserved__::GfQuath", ptr %5, i32 0, i32 0
  %7 = load ptr, ptr %4, align 8
  %8 = call noundef nonnull align 8 dereferenceable(24) ptr @_ZNK32pxrInternal_v0_24__pxrReserved__7GfQuatd12GetImaginaryEv(ptr noundef nonnull align 8 dereferenceable(32) %7)
  call void @_ZN32pxrInternal_v0_24__pxrReserved__7GfVec3hC2ERKNS_7GfVec3dE(ptr noundef nonnull align 2 dereferenceable(6) %6, ptr noundef nonnull align 8 dereferenceable(24) %8)
  %9 = getelementptr inbounds nuw %"class.pxrInternal_v0_24__pxrReserved__::GfQuath", ptr %5, i32 0, i32 1
  %10 = load ptr, ptr %4, align 8
  %11 = call noundef double @_ZNK32pxrInternal_v0_24__pxrReserved__7GfQuatd7GetRealEv(ptr noundef nonnull align 8 dereferenceable(32) %10)
  %12 = fptrunc double %11 to float
  call void @_ZN32pxrInternal_v0_24__pxrReserved__8pxr_half4halfC2Ef(ptr noundef nonnull align 2 dereferenceable(2) %9, float noundef %12)
  ret void
}