; Function Attrs: mustprogress uwtable
define void @_ZN32pxrInternal_v0_24__pxrReserved__7GfQuathC2ERKNS_7GfQuatdE(ptr noundef nonnull align 2 dereferenceable(8) %0, ptr noundef nonnull align 8 dereferenceable(32) %1) unnamed_addr #0 align 2 {
  tail call void @_ZN32pxrInternal_v0_24__pxrReserved__7GfVec3hC2ERKNS_7GfVec3dE(ptr noundef nonnull align 2 dereferenceable(6) %0, ptr noundef nonnull align 8 dereferenceable(24) %1)
  %3 = getelementptr inbounds nuw i8, ptr %1, i64 24
  %4 = load double, ptr %3, align 8
  %5 = fptrunc double %4 to float
  %6 = bitcast float %5 to i32
  %7 = fcmp oeq float %5, 0.000000e+00
  br i1 %7, label %8, label %11

8:                                                ; preds = %2
  %9 = lshr exact i32 %6, 16
  %10 = trunc nuw i32 %9 to i16
  br label %_ZN32pxrInternal_v0_24__pxrReserved__8pxr_half4halfC2Ef.exit

11:                                               ; preds = %2
  %12 = lshr i32 %6, 23
  %13 = zext nneg i32 %12 to i64
  %14 = getelementptr inbounds nuw [512 x i16], ptr @_ZN32pxrInternal_v0_24__pxrReserved__8pxr_half4half5_eLutE, i64 0, i64 %13
  %15 = load i16, ptr %14, align 2
  %.not.i = icmp eq i16 %15, 0
  br i1 %.not.i, label %25, label %16

16:                                               ; preds = %11
  %17 = and i32 %6, 8388607
  %18 = add nuw nsw i32 %17, 4095
  %19 = lshr i32 %6, 13
  %20 = and i32 %19, 1
  %21 = add nuw nsw i32 %18, %20
  %22 = lshr i32 %21, 13
  %23 = trunc nuw nsw i32 %22 to i16
  %24 = add i16 %15, %23
  br label %_ZN32pxrInternal_v0_24__pxrReserved__8pxr_half4halfC2Ef.exit

25:                                               ; preds = %11
  %26 = tail call noundef signext i16 @_ZN32pxrInternal_v0_24__pxrReserved__8pxr_half4half7convertEi(i32 noundef %6)
  br label %_ZN32pxrInternal_v0_24__pxrReserved__8pxr_half4halfC2Ef.exit

_ZN32pxrInternal_v0_24__pxrReserved__8pxr_half4halfC2Ef.exit: ; preds = %8, %16, %25
  %.sink.i = phi i16 [ %24, %16 ], [ %26, %25 ], [ %10, %8 ]
  %27 = getelementptr inbounds nuw i8, ptr %0, i64 6
  store i16 %.sink.i, ptr %27, align 2
  ret void
}